; Function Attrs: nounwind uwtable
define internal noundef i32 @get_array_end(ptr noundef captures(none) %0) #0 {
  %2 = load ptr, ptr %0, align 8
  %3 = getelementptr inbounds nuw i8, ptr %2, i64 56
  %4 = load i32, ptr %3, align 8
  %5 = icmp eq i32 %4, 0
  br i1 %5, label %6, label %21

6:                                                ; preds = %1
  %7 = getelementptr inbounds nuw i8, ptr %0, i64 28
  %8 = load i32, ptr %7, align 4
  %9 = icmp eq i32 %8, 0
  br i1 %9, label %10, label %21

10:                                               ; preds = %6
  %11 = getelementptr inbounds nuw i8, ptr %0, i64 16
  %12 = load ptr, ptr %11, align 8
  %13 = getelementptr inbounds nuw i8, ptr %2, i64 40
  %14 = load ptr, ptr %13, align 8
  %15 = ptrtoint ptr %14 to i64
  %16 = ptrtoint ptr %12 to i64
  %17 = sub i64 %15, %16
  %18 = trunc i64 %17 to i32
  %19 = tail call ptr @cstring_to_text_with_len(ptr noundef %12, i32 noundef %18) #15
  %20 = getelementptr inbounds nuw i8, ptr %0, i64 8
  store ptr %19, ptr %20, align 8
  br label %21

21:                                               ; preds = %10, %6, %1
  ret i32 0
}